; Function Attrs: mustprogress nofree nounwind willreturn memory(write, argmem: readwrite) uwtable
define dso_local void @_ZNK14btAngularLimit3fitERf(ptr nocapture noundef nonnull readonly align 4 dereferenceable(29) %this, ptr nocapture noundef nonnull align 4 dereferenceable(4) %angle) local_unnamed_addr #7 align 2 {
entry:
  %m_halfRange = getelementptr inbounds i8, ptr %this, i64 4
  %0 = load float, ptr %m_halfRange, align 4
  %cmp = fcmp ogt float %0, 0.000000e+00
  br i1 %cmp, label %if.then, label %if.end10

if.then:                                          ; preds = %entry
  %1 = load float, ptr %angle, align 4
  %2 = load float, ptr %this, align 4
  %sub = fsub float %1, %2
  %call.i.i = tail call noundef float @fmodf(float noundef %sub, float noundef 0x401921FB60000000) #14
  %cmp.i = fcmp olt float %call.i.i, 0xC00921FB60000000
  br i1 %cmp.i, label %if.then.i, label %if.else.i

if.then.i:                                        ; preds = %if.then
  %add.i = fadd float %call.i.i, 0x401921FB60000000
  br label %_Z16btNormalizeAnglef.exit

if.else.i:                                        ; preds = %if.then
  %cmp1.i = fcmp ogt float %call.i.i, 0x400921FB60000000
  br i1 %cmp1.i, label %if.then2.i, label %_Z16btNormalizeAnglef.exit

if.then2.i:                                       ; preds = %if.else.i
  %sub.i = fadd float %call.i.i, 0xC01921FB60000000
  br label %_Z16btNormalizeAnglef.exit

_Z16btNormalizeAnglef.exit:                       ; preds = %if.then.i, %if.else.i, %if.then2.i
  %retval.0.i = phi float [ %add.i, %if.then.i ], [ %sub.i, %if.then2.i ], [ %call.i.i, %if.else.i ]
  %3 = load float, ptr %m_halfRange, align 4
  %cmp.i4 = fcmp ole float %retval.0.i, %3
  %fneg.i = fneg float %3
  %cmp1.i5 = fcmp uge float %retval.0.i, %fneg.i
  %4 = and i1 %cmp.i4, %cmp1.i5
  br i1 %4, label %if.end10, label %if.then4

if.then4:                                         ; preds = %_Z16btNormalizeAnglef.exit
  %cmp5 = fcmp ogt float %retval.0.i, 0.000000e+00
  %5 = load float, ptr %this, align 4
  br i1 %cmp5, label %if.then6, label %if.else

if.then6:                                         ; preds = %if.then4
  %add.i6 = fadd float %3, %5
  %call.i.i.i = tail call noundef float @fmodf(float noundef %add.i6, float noundef 0x401921FB60000000) #14
  %cmp.i.i = fcmp olt float %call.i.i.i, 0xC00921FB60000000
  br i1 %cmp.i.i, label %if.then.i.i, label %if.else.i.i

if.then.i.i:                                      ; preds = %if.then6
  %add.i.i = fadd float %call.i.i.i, 0x401921FB60000000
  br label %if.end10.sink.split

if.else.i.i:                                      ; preds = %if.then6
  %cmp1.i.i = fcmp ogt float %call.i.i.i, 0x400921FB60000000
  br i1 %cmp1.i.i, label %if.then2.i.i, label %if.end10.sink.split

if.then2.i.i:                                     ; preds = %if.else.i.i
  %sub.i.i = fadd float %call.i.i.i, 0xC01921FB60000000
  br label %if.end10.sink.split

if.else:                                          ; preds = %if.then4
  %sub.i8 = fsub float %5, %3
  %call.i.i.i9 = tail call noundef float @fmodf(float noundef %sub.i8, float noundef 0x401921FB60000000) #14
  %cmp.i.i10 = fcmp olt float %call.i.i.i9, 0xC00921FB60000000
  br i1 %cmp.i.i10, label %if.then.i.i16, label %if.else.i.i11

if.then.i.i16:                                    ; preds = %if.else
  %add.i.i17 = fadd float %call.i.i.i9, 0x401921FB60000000
  br label %if.end10.sink.split

if.else.i.i11:                                    ; preds = %if.else
  %cmp1.i.i12 = fcmp ogt float %call.i.i.i9, 0x400921FB60000000
  br i1 %cmp1.i.i12, label %if.then2.i.i14, label %if.end10.sink.split

if.then2.i.i14:                                   ; preds = %if.else.i.i11
  %sub.i.i15 = fadd float %call.i.i.i9, 0xC01921FB60000000
  br label %if.end10.sink.split

if.end10.sink.split:                              ; preds = %if.then2.i.i14, %if.else.i.i11, %if.then.i.i16, %if.then2.i.i, %if.else.i.i, %if.then.i.i
  %retval.0.i.i13.sink = phi float [ %add.i.i, %if.then.i.i ], [ %sub.i.i, %if.then2.i.i ], [ %call.i.i.i, %if.else.i.i ], [ %add.i.i17, %if.then.i.i16 ], [ %sub.i.i15, %if.then2.i.i14 ], [ %call.i.i.i9, %if.else.i.i11 ]
  store float %retval.0.i.i13.sink, ptr %angle, align 4
  br label %if.end10

if.end10:                                         ; preds = %if.end10.sink.split, %_Z16btNormalizeAnglef.exit, %entry
  ret void
}